; Function Attrs: nounwind uwtable
define hidden i32 @ps_validate_sid_user(ptr noundef %0, ptr noundef %1) #0 {
  %3 = alloca [1 x %struct._zval_struct], align 16
  %4 = alloca %struct._zval_struct, align 8
  %5 = load i8, ptr getelementptr inbounds nuw (i8, ptr @ps_globals, i64 312), align 8, !tbaa !9
  %6 = icmp eq i8 %5, 0
  br i1 %6, label %31, label %7

7:                                                ; preds = %2
  call void @llvm.lifetime.start.p0(i64 16, ptr nonnull %3) #8
  call void @llvm.lifetime.start.p0(i64 16, ptr nonnull %4) #8
  store ptr %1, ptr %3, align 16, !tbaa !9
  %8 = getelementptr inbounds nuw i8, ptr %1, i64 4
  %9 = load i32, ptr %8, align 4, !tbaa !9
  %10 = and i32 %9, 64
  %.not = icmp eq i32 %10, 0
  br i1 %.not, label %11, label %14

11:                                               ; preds = %7
  %12 = load i32, ptr %1, align 4, !tbaa !4
  %13 = add i32 %12, 1
  store i32 %13, ptr %1, align 4, !tbaa !4
  br label %14

14:                                               ; preds = %7, %11
  %.sink = phi i32 [ 262, %11 ], [ 6, %7 ]
  %15 = getelementptr inbounds nuw i8, ptr %3, i64 8
  store i32 %.sink, ptr %15, align 8, !tbaa !9
  %16 = load i8, ptr getelementptr inbounds nuw (i8, ptr @ps_globals, i64 436), align 4, !tbaa !47, !range !58, !noundef !59
  %17 = trunc nuw i8 %16 to i1
  br i1 %17, label %18, label %20

18:                                               ; preds = %14
  store i8 0, ptr getelementptr inbounds nuw (i8, ptr @ps_globals, i64 436), align 4, !tbaa !47
  %19 = getelementptr inbounds nuw i8, ptr %4, i64 8
  store i32 0, ptr %19, align 8, !tbaa !9
  tail call void (ptr, i32, ptr, ...) @php_error_docref(ptr noundef null, i32 noundef 2, ptr noundef nonnull @.str.4) #8
  br label %ps_call_handler.exit

20:                                               ; preds = %14
  store i8 1, ptr getelementptr inbounds nuw (i8, ptr @ps_globals, i64 436), align 4, !tbaa !47
  %21 = call i32 @_call_user_function_impl(ptr noundef null, ptr noundef nonnull getelementptr inbounds nuw (i8, ptr @ps_globals, i64 304), ptr noundef nonnull %4, i32 noundef 1, ptr noundef nonnull %3, ptr noundef null) #8
  %22 = icmp eq i32 %21, -1
  br i1 %22, label %23, label %25

23:                                               ; preds = %20
  call void @zval_ptr_dtor(ptr noundef nonnull %4) #8
  %24 = getelementptr inbounds nuw i8, ptr %4, i64 8
  store i32 0, ptr %24, align 8, !tbaa !9
  br label %.lr.ph.i

25:                                               ; preds = %20
  %26 = getelementptr inbounds nuw i8, ptr %4, i64 8
  %27 = load i8, ptr %26, align 8, !tbaa !9
  %28 = icmp eq i8 %27, 0
  br i1 %28, label %29, label %.lr.ph.i

29:                                               ; preds = %25
  store i32 1, ptr %26, align 8, !tbaa !9
  br label %.lr.ph.i

.lr.ph.i:                                         ; preds = %29, %25, %23
  store i8 0, ptr getelementptr inbounds nuw (i8, ptr @ps_globals, i64 436), align 4, !tbaa !47
  call void @zval_ptr_dtor(ptr noundef nonnull %3) #8
  br label %ps_call_handler.exit

ps_call_handler.exit:                             ; preds = %.lr.ph.i, %18
  %30 = call fastcc i32 @verify_bool_return_type_userland_calls(ptr noundef %4)
  call void @zval_ptr_dtor(ptr noundef nonnull %4) #8
  call void @llvm.lifetime.end.p0(i64 16, ptr nonnull %4) #8
  call void @llvm.lifetime.end.p0(i64 16, ptr nonnull %3) #8
  br label %33

31:                                               ; preds = %2
  %32 = tail call i32 @php_session_validate_sid(ptr noundef %0, ptr noundef %1) #8
  br label %33

33:                                               ; preds = %31, %ps_call_handler.exit
  %.0 = phi i32 [ %32, %31 ], [ %30, %ps_call_handler.exit ]
  ret i32 %.0
}